; Function Attrs: nounwind uwtable
define hidden range(i32 -2147483647, 2147483647) i32 @X509_NAME_get_index_by_OBJ(ptr noundef readonly captures(address_is_null) %0, ptr noundef %1, i32 noundef %2) local_unnamed_addr #0 {
  %4 = icmp eq ptr %0, null
  br i1 %4, label %.loopexit, label %5

5:                                                ; preds = %3
  %6 = load ptr, ptr %0, align 8, !tbaa !6
  %7 = tail call i64 @sk_num(ptr noundef %6) #7
  %8 = tail call i32 @llvm.smax.i32(i32 %2, i32 -1)
  %smax = sext i32 %8 to i64
  %sext = shl i64 %7, 32
  %9 = ashr exact i64 %sext, 32
  br label %10

10:                                               ; preds = %12, %5
  %indvars.iv = phi i64 [ %indvars.iv.next, %12 ], [ %smax, %5 ]
  %indvars.iv.next = add nsw i64 %indvars.iv, 1
  %11 = icmp slt i64 %indvars.iv.next, %9
  br i1 %11, label %12, label %.loopexit

12:                                               ; preds = %10
  %13 = tail call ptr @sk_value(ptr noundef %6, i64 noundef %indvars.iv.next) #7
  %14 = load ptr, ptr %13, align 8, !tbaa !15
  %15 = tail call i32 @OBJ_cmp(ptr noundef %14, ptr noundef %1) #7
  %16 = icmp eq i32 %15, 0
  br i1 %16, label %.loopexit.loopexit.split.loop.exit, label %10, !llvm.loop !19

.loopexit.loopexit.split.loop.exit:               ; preds = %12
  %17 = trunc nsw i64 %indvars.iv.next to i32
  br label %.loopexit

.loopexit:                                        ; preds = %10, %.loopexit.loopexit.split.loop.exit, %3
  %.0 = phi i32 [ -1, %3 ], [ %17, %.loopexit.loopexit.split.loop.exit ], [ -1, %10 ]
  ret i32 %.0
}